target datalayout = "e-m:e-p270:32:32-p271:32:32-p272:64:64-i64:64-i128:128-f80:128-n8:16:32:64-S128"
target triple = "x86_64-pc-linux-gnu"

%"struct.vcpkg::StringView" = type { ptr, i64 }
%"class.std::__cxx11::basic_string" = type { %"struct.std::__cxx11::basic_string<char>::_Alloc_hider", i64, %union.anon }
%"struct.std::__cxx11::basic_string<char>::_Alloc_hider" = type { ptr }
%union.anon = type { i64, [8 x i8] }
%"struct.vcpkg::LineInfo" = type { i32, ptr }
%"struct.vcpkg::Optional" = type { %"struct.vcpkg::details::OptionalStorage" }
%"struct.vcpkg::details::OptionalStorage" = type { ptr }
%"struct.vcpkg::Span.97" = type { ptr, i64 }
%"struct.vcpkg::Path" = type { %"class.std::__cxx11::basic_string" }
%"struct.vcpkg::Span.110" = type { ptr, i64 }
%"struct.vcpkg::IgnoreErrors" = type { %"class.std::error_code" }
%"class.std::error_code" = type { i32, ptr }
%"struct.vcpkg::ZipTool" = type { i8 }
%"struct.(anonymous namespace)::FilesReadBinaryProvider" = type { %"struct.(anonymous namespace)::ZipReadBinaryProvider", %"struct.vcpkg::Path" }
%"struct.(anonymous namespace)::ZipReadBinaryProvider" = type { %"struct.vcpkg::IReadBinaryProvider", %"struct.vcpkg::ZipTool", ptr }
%"struct.vcpkg::IReadBinaryProvider" = type { ptr }

@.str.1 = private unnamed_addr constant [122 x i8] c"generated/home/dtcxzyw/WorkSpace/Projects/compilers/llvm-opt-benchmark/bench/vcpkg/vcpkg-tool/src/vcpkg/binarycaching.cpp\00", align 1
@.str.116 = private unnamed_addr constant [15 x i8] c"Value was null\00", align 1

; Function Attrs: mustprogress nounwind uwtable
define linkonce_odr dso_local void @_ZNSt10error_codeC2Ev(ptr noundef nonnull align 8 dereferenceable(16) %0) unnamed_addr #1 comdat align 2 {
  %2 = alloca ptr, align 8
  store ptr %0, ptr %2, align 8
  %3 = load ptr, ptr %2, align 8
  %4 = getelementptr inbounds %"class.std::error_code", ptr %3, i32 0, i32 0
  store i32 0, ptr %4, align 8
  %5 = getelementptr inbounds %"class.std::error_code", ptr %3, i32 0, i32 1
  %6 = call noundef nonnull align 8 dereferenceable(8) ptr @_ZNSt3_V215system_categoryEv() #22
  store ptr %6, ptr %5, align 8
  ret void
}

; Function Attrs: mustprogress nounwind uwtable
define linkonce_odr dso_local noundef nonnull align 8 dereferenceable(32) ptr @_ZNK5vcpkg7details15OptionalStorageIRKNSt7__cxx1112basic_stringIcSt11char_traitsIcESaIcEEELb1EE5valueEv(ptr noundef nonnull align 8 dereferenceable(8) %0) #1 comdat align 2 {
  %2 = alloca ptr, align 8
  store ptr %0, ptr %2, align 8
  %3 = load ptr, ptr %2, align 8
  %4 = getelementptr inbounds %"struct.vcpkg::details::OptionalStorage", ptr %3, i32 0, i32 0
  %5 = load ptr, ptr %4, align 8
  ret ptr %5
}

; Function Attrs: mustprogress nounwind uwtable
define linkonce_odr dso_local void @_ZN5vcpkg10StringViewC2EPKc(ptr noundef nonnull align 8 dereferenceable(16) %0, ptr noundef %1) unnamed_addr #1 comdat align 2 {
  %3 = alloca ptr, align 8
  %4 = alloca ptr, align 8
  store ptr %0, ptr %3, align 8
  store ptr %1, ptr %4, align 8
  %5 = load ptr, ptr %3, align 8
  %6 = getelementptr inbounds %"struct.vcpkg::StringView", ptr %5, i32 0, i32 0
  %7 = load ptr, ptr %4, align 8
  store ptr %7, ptr %6, align 8
  %8 = getelementptr inbounds %"struct.vcpkg::StringView", ptr %5, i32 0, i32 1
  %9 = load ptr, ptr %4, align 8
  %10 = call i64 @strlen(ptr noundef %9) #19
  store i64 %10, ptr %8, align 8
  ret void
}

; Function Attrs: mustprogress nounwind uwtable
define linkonce_odr dso_local noundef zeroext i1 @_ZNK5vcpkg7details15OptionalStorageIRKNSt7__cxx1112basic_stringIcSt11char_traitsIcESaIcEEELb1EE9has_valueEv(ptr noundef nonnull align 8 dereferenceable(8) %0) #1 comdat align 2 {
  %2 = alloca ptr, align 8
  store ptr %0, ptr %2, align 8
  %3 = load ptr, ptr %2, align 8
  %4 = getelementptr inbounds %"struct.vcpkg::details::OptionalStorage", ptr %3, i32 0, i32 0
  %5 = load ptr, ptr %4, align 8
  %6 = icmp ne ptr %5, null
  ret i1 %6
}

; Function Attrs: mustprogress nounwind uwtable
define linkonce_odr dso_local noundef nonnull align 1 dereferenceable(1) ptr @_ZNK5vcpkg4SpanINS_17CacheAvailabilityEEixEm(ptr noundef nonnull align 8 dereferenceable(16) %0, i64 noundef %1) #1 comdat align 2 {
  %3 = alloca ptr, align 8
  %4 = alloca i64, align 8
  store ptr %0, ptr %3, align 8
  store i64 %1, ptr %4, align 8
  %5 = load ptr, ptr %3, align 8
  %6 = getelementptr inbounds %"struct.vcpkg::Span.110", ptr %5, i32 0, i32 0
  %7 = load ptr, ptr %6, align 8
  %8 = load i64, ptr %4, align 8
  %9 = getelementptr inbounds i8, ptr %7, i64 %8
  ret ptr %9
}

; Function Attrs: mustprogress nounwind uwtable
define linkonce_odr dso_local void @_ZN5vcpkg4PathD2Ev(ptr noundef nonnull align 8 dereferenceable(32) %0) unnamed_addr #1 comdat align 2 {
  %2 = alloca ptr, align 8
  store ptr %0, ptr %2, align 8
  %3 = load ptr, ptr %2, align 8
  %4 = getelementptr inbounds %"struct.vcpkg::Path", ptr %3, i32 0, i32 0
  call void @_ZNSt7__cxx1112basic_stringIcSt11char_traitsIcESaIcEED1Ev(ptr noundef nonnull align 8 dereferenceable(32) %4) #8
  ret void
}

; Function Attrs: mustprogress nounwind uwtable
define linkonce_odr dso_local void @_ZN5vcpkg12IgnoreErrorsC2Ev(ptr noundef nonnull align 8 dereferenceable(16) %0) unnamed_addr #1 comdat align 2 {
  %2 = alloca ptr, align 8
  store ptr %0, ptr %2, align 8
  %3 = load ptr, ptr %2, align 8
  %4 = getelementptr inbounds %"struct.vcpkg::IgnoreErrors", ptr %3, i32 0, i32 0
  call void @_ZNSt10error_codeC2Ev(ptr noundef nonnull align 8 dereferenceable(16) %4) #8
  ret void
}

; Function Attrs: mustprogress nounwind uwtable
define linkonce_odr dso_local noundef nonnull align 8 dereferenceable(32) ptr @_ZNO5vcpkg8OptionalIRKNSt7__cxx1112basic_stringIcSt11char_traitsIcESaIcEEEE13value_or_exitERKNS_8LineInfoE(ptr noundef nonnull align 8 dereferenceable(8) %0, ptr noundef nonnull align 8 dereferenceable(16) %1) #1 comdat align 2 personality ptr @__gxx_personality_v0 {
  %3 = alloca ptr, align 8
  %4 = alloca ptr, align 8
  %5 = alloca %"struct.vcpkg::StringView", align 8
  store ptr %0, ptr %3, align 8
  store ptr %1, ptr %4, align 8
  %6 = load ptr, ptr %3, align 8
  %7 = load ptr, ptr %4, align 8
  %8 = call noundef zeroext i1 @_ZNK5vcpkg7details15OptionalStorageIRKNSt7__cxx1112basic_stringIcSt11char_traitsIcESaIcEEELb1EE9has_valueEv(ptr noundef nonnull align 8 dereferenceable(8) %6) #8
  call void @_ZN5vcpkg10StringViewC2EPKc(ptr noundef nonnull align 8 dereferenceable(16) %5, ptr noundef @.str.116) #8
  %9 = getelementptr inbounds { ptr, i64 }, ptr %5, i32 0, i32 0
  %10 = load ptr, ptr %9, align 8
  %11 = getelementptr inbounds { ptr, i64 }, ptr %5, i32 0, i32 1
  %12 = load i64, ptr %11, align 8
  invoke void @_ZN5vcpkg6Checks10check_exitERKNS_8LineInfoEbNS_10StringViewE(ptr noundef nonnull align 8 dereferenceable(16) %7, i1 noundef zeroext %8, ptr %10, i64 %12)
          to label %13 unwind label %15

13:                                               ; preds = %2
  %14 = call noundef nonnull align 8 dereferenceable(32) ptr @_ZNK5vcpkg7details15OptionalStorageIRKNSt7__cxx1112basic_stringIcSt11char_traitsIcESaIcEEELb1EE5valueEv(ptr noundef nonnull align 8 dereferenceable(8) %6) #8
  ret ptr %14

15:                                               ; preds = %2
  %16 = landingpad { ptr, i32 }
          catch ptr null
  %17 = extractvalue { ptr, i32 } %16, 0
  call void @__clang_call_terminate(ptr %17) #17
  unreachable
}

; Function Attrs: mustprogress nounwind uwtable
define linkonce_odr dso_local noundef nonnull align 8 dereferenceable(8) ptr @_ZNK5vcpkg4SpanIKPKNS_17InstallPlanActionEEixEm(ptr noundef nonnull align 8 dereferenceable(16) %0, i64 noundef %1) #1 comdat align 2 {
  %3 = alloca ptr, align 8
  %4 = alloca i64, align 8
  store ptr %0, ptr %3, align 8
  store i64 %1, ptr %4, align 8
  %5 = load ptr, ptr %3, align 8
  %6 = getelementptr inbounds %"struct.vcpkg::Span.97", ptr %5, i32 0, i32 0
  %7 = load ptr, ptr %6, align 8
  %8 = load i64, ptr %4, align 8
  %9 = getelementptr inbounds ptr, ptr %7, i64 %8
  ret ptr %9
}

; Function Attrs: mustprogress nounwind uwtable
define linkonce_odr dso_local noundef i64 @_ZNK5vcpkg4SpanIKPKNS_17InstallPlanActionEE4sizeEv(ptr noundef nonnull align 8 dereferenceable(16) %0) #1 comdat align 2 {
  %2 = alloca ptr, align 8
  store ptr %0, ptr %2, align 8
  %3 = load ptr, ptr %2, align 8
  %4 = getelementptr inbounds %"struct.vcpkg::Span.97", ptr %3, i32 0, i32 1
  %5 = load i64, ptr %4, align 8
  ret i64 %5
}

; Function Attrs: mustprogress uwtable
define internal void @_ZNK12_GLOBAL__N_123FilesReadBinaryProvider8precheckEN5vcpkg4SpanIKPKNS1_17InstallPlanActionEEENS2_INS1_17CacheAvailabilityEEE(ptr noundef nonnull align 8 dereferenceable(56) %0, ptr %1, i64 %2, ptr %3, i64 %4) unnamed_addr #0 align 2 personality ptr @__gxx_personality_v0 {
  %6 = alloca %"struct.vcpkg::Span.97", align 8
  %7 = alloca %"struct.vcpkg::Span.110", align 8
  %8 = alloca ptr, align 8
  %9 = alloca i64, align 8
  %10 = alloca ptr, align 8
  %11 = alloca ptr, align 8
  %12 = alloca %"struct.vcpkg::Optional", align 8
  %13 = alloca %"struct.vcpkg::LineInfo", align 8
  %14 = alloca i8, align 1
  %15 = alloca %"struct.vcpkg::Path", align 8
  %16 = alloca %"struct.vcpkg::StringView", align 8
  %17 = alloca %"struct.vcpkg::Path", align 8
  %18 = alloca ptr, align 8
  %19 = alloca i32, align 4
  %20 = alloca %"struct.vcpkg::IgnoreErrors", align 8
  %21 = getelementptr inbounds { ptr, i64 }, ptr %6, i32 0, i32 0
  store ptr %1, ptr %21, align 8
  %22 = getelementptr inbounds { ptr, i64 }, ptr %6, i32 0, i32 1
  store i64 %2, ptr %22, align 8
  %23 = getelementptr inbounds { ptr, i64 }, ptr %7, i32 0, i32 0
  store ptr %3, ptr %23, align 8
  %24 = getelementptr inbounds { ptr, i64 }, ptr %7, i32 0, i32 1
  store i64 %4, ptr %24, align 8
  store ptr %0, ptr %8, align 8
  %25 = load ptr, ptr %8, align 8
  store i64 0, ptr %9, align 8
  br label %26

26:                                               ; preds = %75, %5
  %27 = load i64, ptr %9, align 8
  %28 = call noundef i64 @_ZNK5vcpkg4SpanIKPKNS_17InstallPlanActionEE4sizeEv(ptr noundef nonnull align 8 dereferenceable(16) %6) #8
  %29 = icmp ult i64 %27, %28
  br i1 %29, label %30, label %78

30:                                               ; preds = %26
  %31 = load i64, ptr %9, align 8
  %32 = call noundef nonnull align 8 dereferenceable(8) ptr @_ZNK5vcpkg4SpanIKPKNS_17InstallPlanActionEEixEm(ptr noundef nonnull align 8 dereferenceable(16) %6, i64 noundef %31) #8
  %33 = load ptr, ptr %32, align 8
  store ptr %33, ptr %10, align 8
  %34 = load ptr, ptr %10, align 8
  %35 = call ptr @_ZNK5vcpkg17InstallPlanAction11package_abiB5cxx11Ev(ptr noundef nonnull align 8 dereferenceable(528) %34)
  %36 = getelementptr inbounds %"struct.vcpkg::Optional", ptr %12, i32 0, i32 0
  %37 = getelementptr inbounds %"struct.vcpkg::details::OptionalStorage", ptr %36, i32 0, i32 0
  store ptr %35, ptr %37, align 8
  %38 = getelementptr inbounds %"struct.vcpkg::LineInfo", ptr %13, i32 0, i32 0
  store i32 362, ptr %38, align 8
  %39 = getelementptr inbounds %"struct.vcpkg::LineInfo", ptr %13, i32 0, i32 1
  store ptr @.str.1, ptr %39, align 8
  %40 = call noundef nonnull align 8 dereferenceable(32) ptr @_ZNO5vcpkg8OptionalIRKNSt7__cxx1112basic_stringIcSt11char_traitsIcESaIcEEEE13value_or_exitERKNS_8LineInfoE(ptr noundef nonnull align 8 dereferenceable(8) %12, ptr noundef nonnull align 8 dereferenceable(16) %13) #8
  store ptr %40, ptr %11, align 8
  store i8 0, ptr %14, align 1
  %41 = getelementptr inbounds %"struct.(anonymous namespace)::ZipReadBinaryProvider", ptr %25, i32 0, i32 2
  %42 = load ptr, ptr %41, align 8
  %43 = getelementptr inbounds %"struct.(anonymous namespace)::FilesReadBinaryProvider", ptr %25, i32 0, i32 1
  %44 = load ptr, ptr %11, align 8
  call void @_ZN12_GLOBAL__N_121files_archive_subpathERKNSt7__cxx1112basic_stringIcSt11char_traitsIcESaIcEEE(ptr dead_on_unwind writable sret(%"struct.vcpkg::Path") align 8 %17, ptr noundef nonnull align 8 dereferenceable(32) %44)
  %45 = call { ptr, i64 } @_ZNK5vcpkg4PathcvNS_10StringViewEEv(ptr noundef nonnull align 8 dereferenceable(32) %17) #8
  %46 = getelementptr inbounds { ptr, i64 }, ptr %16, i32 0, i32 0
  %47 = extractvalue { ptr, i64 } %45, 0
  store ptr %47, ptr %46, align 8
  %48 = getelementptr inbounds { ptr, i64 }, ptr %16, i32 0, i32 1
  %49 = extractvalue { ptr, i64 } %45, 1
  store i64 %49, ptr %48, align 8
  %50 = getelementptr inbounds { ptr, i64 }, ptr %16, i32 0, i32 0
  %51 = load ptr, ptr %50, align 8
  %52 = getelementptr inbounds { ptr, i64 }, ptr %16, i32 0, i32 1
  %53 = load i64, ptr %52, align 8
  invoke void @_ZNKR5vcpkg4PathdvENS_10StringViewE(ptr dead_on_unwind writable sret(%"struct.vcpkg::Path") align 8 %15, ptr noundef nonnull align 8 dereferenceable(32) %43, ptr %51, i64 %53)
          to label %54 unwind label %60

54:                                               ; preds = %30
  call void @llvm.memset.p0.i64(ptr align 8 %20, i8 0, i64 16, i1 false)
  call void @_ZN5vcpkg12IgnoreErrorsC2Ev(ptr noundef nonnull align 8 dereferenceable(16) %20) #8
  %55 = invoke noundef nonnull align 8 dereferenceable(16) ptr @_ZN5vcpkg12IgnoreErrorscvRSt10error_codeEv(ptr noundef nonnull align 8 dereferenceable(16) %20)
          to label %56 unwind label %64

56:                                               ; preds = %54
  %57 = invoke noundef zeroext i1 @_ZNK5vcpkg18ReadOnlyFilesystem6existsERKNS_4PathERSt10error_code(ptr noundef nonnull align 8 dereferenceable(8) %42, ptr noundef nonnull align 8 dereferenceable(32) %15, ptr noundef nonnull align 8 dereferenceable(16) %55)
          to label %58 unwind label %64

58:                                               ; preds = %56
  call void @_ZN5vcpkg4PathD2Ev(ptr noundef nonnull align 8 dereferenceable(32) %15) #8
  call void @_ZN5vcpkg4PathD2Ev(ptr noundef nonnull align 8 dereferenceable(32) %17) #8
  br i1 %57, label %59, label %69

59:                                               ; preds = %58
  store i8 1, ptr %14, align 1
  br label %69

60:                                               ; preds = %30
  %61 = landingpad { ptr, i32 }
          cleanup
  %62 = extractvalue { ptr, i32 } %61, 0
  store ptr %62, ptr %18, align 8
  %63 = extractvalue { ptr, i32 } %61, 1
  store i32 %63, ptr %19, align 4
  br label %68

64:                                               ; preds = %56, %54
  %65 = landingpad { ptr, i32 }
          cleanup
  %66 = extractvalue { ptr, i32 } %65, 0
  store ptr %66, ptr %18, align 8
  %67 = extractvalue { ptr, i32 } %65, 1
  store i32 %67, ptr %19, align 4
  call void @_ZN5vcpkg4PathD2Ev(ptr noundef nonnull align 8 dereferenceable(32) %15) #8
  br label %68

68:                                               ; preds = %64, %60
  call void @_ZN5vcpkg4PathD2Ev(ptr noundef nonnull align 8 dereferenceable(32) %17) #8
  br label %79

69:                                               ; preds = %59, %58
  %70 = load i8, ptr %14, align 1
  %71 = trunc i8 %70 to i1
  %72 = select i1 %71, i8 2, i8 1
  %73 = load i64, ptr %9, align 8
  %74 = call noundef nonnull align 1 dereferenceable(1) ptr @_ZNK5vcpkg4SpanINS_17CacheAvailabilityEEixEm(ptr noundef nonnull align 8 dereferenceable(16) %7, i64 noundef %73) #8
  store i8 %72, ptr %74, align 1
  br label %75

75:                                               ; preds = %69
  %76 = load i64, ptr %9, align 8
  %77 = add i64 %76, 1
  store i64 %77, ptr %9, align 8
  br label %26, !llvm.loop !42

78:                                               ; preds = %26
  ret void

79:                                               ; preds = %68
  %80 = load ptr, ptr %18, align 8
  %81 = load i32, ptr %19, align 4
  %82 = insertvalue { ptr, i32 } poison, ptr %80, 0
  %83 = insertvalue { ptr, i32 } %82, i32 %81, 1
  resume { ptr, i32 } %83
}