; Function Attrs: mustprogress uwtable
define internal void @_ZNK12_GLOBAL__N_123FilesReadBinaryProvider8precheckEN5vcpkg4SpanIKPKNS1_17InstallPlanActionEEENS2_INS1_17CacheAvailabilityEEE(ptr noundef nonnull align 8 dereferenceable(56) %0, ptr nocapture readonly %1, i64 %2, ptr nocapture writeonly %3, i64 %4) unnamed_addr #0 align 2 personality ptr @__gxx_personality_v0 {
  %6 = alloca %"struct.vcpkg::LineInfo", align 8
  %7 = alloca %"struct.vcpkg::Path", align 8
  %8 = alloca %"struct.vcpkg::Path", align 8
  %9 = alloca %"struct.vcpkg::IgnoreErrors", align 8
  %.not = icmp eq i64 %2, 0
  br i1 %.not, label %._crit_edge, label %.lr.ph

.lr.ph:                                           ; preds = %5
  %10 = getelementptr inbounds i8, ptr %6, i64 8
  %11 = getelementptr inbounds i8, ptr %0, i64 16
  %12 = getelementptr inbounds i8, ptr %0, i64 24
  %13 = getelementptr inbounds i8, ptr %9, i64 8
  br label %14

14:                                               ; preds = %.lr.ph, %31
  %.01017 = phi i64 [ 0, %.lr.ph ], [ %33, %31 ]
  %15 = getelementptr inbounds ptr, ptr %1, i64 %.01017
  %16 = load ptr, ptr %15, align 8
  %17 = call ptr @_ZNK5vcpkg17InstallPlanAction11package_abiB5cxx11Ev(ptr noundef nonnull align 8 dereferenceable(528) %16)
  store i32 362, ptr %6, align 8
  store ptr @.str.1, ptr %10, align 8
  %18 = icmp ne ptr %17, null
  invoke void @_ZN5vcpkg6Checks10check_exitERKNS_8LineInfoEbNS_10StringViewE(ptr noundef nonnull align 8 dereferenceable(16) %6, i1 noundef zeroext %18, ptr nonnull @.str.116, i64 14)
          to label %_ZNO5vcpkg8OptionalIRKNSt7__cxx1112basic_stringIcSt11char_traitsIcESaIcEEEE13value_or_exitERKNS_8LineInfoE.exit unwind label %19

19:                                               ; preds = %14
  %20 = landingpad { ptr, i32 }
          catch ptr null
  %21 = extractvalue { ptr, i32 } %20, 0
  call void @__clang_call_terminate(ptr %21) #27
  unreachable

_ZNO5vcpkg8OptionalIRKNSt7__cxx1112basic_stringIcSt11char_traitsIcESaIcEEEE13value_or_exitERKNS_8LineInfoE.exit: ; preds = %14
  %22 = load ptr, ptr %11, align 8
  call fastcc void @_ZN12_GLOBAL__N_121files_archive_subpathERKNSt7__cxx1112basic_stringIcSt11char_traitsIcESaIcEEE(ptr dead_on_unwind noalias nonnull writable align 8 %8, ptr noundef nonnull align 8 dereferenceable(32) %17)
  %23 = call { ptr, i64 } @_ZNK5vcpkg4PathcvNS_10StringViewEEv(ptr noundef nonnull align 8 dereferenceable(32) %8) #24
  %24 = extractvalue { ptr, i64 } %23, 0
  %25 = extractvalue { ptr, i64 } %23, 1
  invoke void @_ZNKR5vcpkg4PathdvENS_10StringViewE(ptr dead_on_unwind nonnull writable sret(%"struct.vcpkg::Path") align 8 %7, ptr noundef nonnull align 8 dereferenceable(32) %12, ptr %24, i64 %25)
          to label %26 unwind label %34

26:                                               ; preds = %_ZNO5vcpkg8OptionalIRKNSt7__cxx1112basic_stringIcSt11char_traitsIcESaIcEEEE13value_or_exitERKNS_8LineInfoE.exit
  %27 = tail call noundef nonnull align 8 dereferenceable(8) ptr @_ZNSt3_V215system_categoryEv() #30
  store i64 0, ptr %9, align 8
  store ptr %27, ptr %13, align 8
  %28 = invoke noundef nonnull align 8 dereferenceable(16) ptr @_ZN5vcpkg12IgnoreErrorscvRSt10error_codeEv(ptr noundef nonnull align 8 dereferenceable(16) %9)
          to label %29 unwind label %36

29:                                               ; preds = %26
  %30 = invoke noundef zeroext i1 @_ZNK5vcpkg18ReadOnlyFilesystem6existsERKNS_4PathERSt10error_code(ptr noundef nonnull align 8 dereferenceable(8) %22, ptr noundef nonnull align 8 dereferenceable(32) %7, ptr noundef nonnull align 8 dereferenceable(16) %28)
          to label %31 unwind label %36

31:                                               ; preds = %29
  call void @_ZNSt7__cxx1112basic_stringIcSt11char_traitsIcESaIcEED1Ev(ptr noundef nonnull align 8 dereferenceable(32) %7) #24
  call void @_ZNSt7__cxx1112basic_stringIcSt11char_traitsIcESaIcEED1Ev(ptr noundef nonnull align 8 dereferenceable(32) %8) #24
  %spec.select = select i1 %30, i8 2, i8 1
  %32 = getelementptr inbounds i8, ptr %3, i64 %.01017
  store i8 %spec.select, ptr %32, align 1
  %33 = add nuw i64 %.01017, 1
  %exitcond.not = icmp eq i64 %33, %2
  br i1 %exitcond.not, label %._crit_edge, label %14, !llvm.loop !514

34:                                               ; preds = %_ZNO5vcpkg8OptionalIRKNSt7__cxx1112basic_stringIcSt11char_traitsIcESaIcEEEE13value_or_exitERKNS_8LineInfoE.exit
  %35 = landingpad { ptr, i32 }
          cleanup
  br label %38

36:                                               ; preds = %29, %26
  %37 = landingpad { ptr, i32 }
          cleanup
  call void @_ZNSt7__cxx1112basic_stringIcSt11char_traitsIcESaIcEED1Ev(ptr noundef nonnull align 8 dereferenceable(32) %7) #24
  br label %38

38:                                               ; preds = %36, %34
  %.pn = phi { ptr, i32 } [ %37, %36 ], [ %35, %34 ]
  call void @_ZNSt7__cxx1112basic_stringIcSt11char_traitsIcESaIcEED1Ev(ptr noundef nonnull align 8 dereferenceable(32) %8) #24
  resume { ptr, i32 } %.pn

._crit_edge:                                      ; preds = %31, %5
  ret void
}